target datalayout = "e-m:e-p270:32:32-p271:32:32-p272:64:64-i64:64-i128:128-f80:128-n8:16:32:64-S128"
target triple = "x86_64-pc-linux-gnu"

%struct.Vec_Int_t_ = type { i32, i32, ptr }
%struct.Vec_Wrd_t_ = type { i32, i32, ptr }

; Function Attrs: inlinehint nounwind uwtable
define internal void @Vec_IntWriteEntry(ptr noundef %0, i32 noundef %1, i32 noundef %2) #3 {
  %4 = alloca ptr, align 8
  %5 = alloca i32, align 4
  %6 = alloca i32, align 4
  store ptr %0, ptr %4, align 8, !tbaa !19
  store i32 %1, ptr %5, align 4, !tbaa !8
  store i32 %2, ptr %6, align 4, !tbaa !8
  %7 = load i32, ptr %6, align 4, !tbaa !8
  %8 = load ptr, ptr %4, align 8, !tbaa !19
  %9 = getelementptr inbounds nuw %struct.Vec_Int_t_, ptr %8, i32 0, i32 2
  %10 = load ptr, ptr %9, align 8, !tbaa !29
  %11 = load i32, ptr %5, align 4, !tbaa !8
  %12 = sext i32 %11 to i64
  %13 = getelementptr inbounds i32, ptr %10, i64 %12
  store i32 %7, ptr %13, align 4, !tbaa !8
  ret void
}

; Function Attrs: inlinehint nounwind uwtable
define internal i32 @Vec_IntEntry(ptr noundef %0, i32 noundef %1) #3 {
  %3 = alloca ptr, align 8
  %4 = alloca i32, align 4
  store ptr %0, ptr %3, align 8, !tbaa !19
  store i32 %1, ptr %4, align 4, !tbaa !8
  %5 = load ptr, ptr %3, align 8, !tbaa !19
  %6 = getelementptr inbounds nuw %struct.Vec_Int_t_, ptr %5, i32 0, i32 2
  %7 = load ptr, ptr %6, align 8, !tbaa !29
  %8 = load i32, ptr %4, align 4, !tbaa !8
  %9 = sext i32 %8 to i64
  %10 = getelementptr inbounds i32, ptr %7, i64 %9
  %11 = load i32, ptr %10, align 4, !tbaa !8
  ret i32 %11
}

; Function Attrs: inlinehint nounwind uwtable
define internal i32 @Vec_IntSize(ptr noundef %0) #3 {
  %2 = alloca ptr, align 8
  store ptr %0, ptr %2, align 8, !tbaa !19
  %3 = load ptr, ptr %2, align 8, !tbaa !19
  %4 = getelementptr inbounds nuw %struct.Vec_Int_t_, ptr %3, i32 0, i32 1
  %5 = load i32, ptr %4, align 4, !tbaa !26
  ret i32 %5
}

; Function Attrs: inlinehint nounwind uwtable
define internal void @Abc_TtSetBit(ptr noundef %0, i32 noundef %1) #3 {
  %3 = alloca ptr, align 8
  %4 = alloca i32, align 4
  store ptr %0, ptr %3, align 8, !tbaa !3
  store i32 %1, ptr %4, align 4, !tbaa !8
  %5 = load i32, ptr %4, align 4, !tbaa !8
  %6 = and i32 %5, 63
  %7 = zext i32 %6 to i64
  %8 = shl i64 1, %7
  %9 = load ptr, ptr %3, align 8, !tbaa !3
  %10 = load i32, ptr %4, align 4, !tbaa !8
  %11 = ashr i32 %10, 6
  %12 = sext i32 %11 to i64
  %13 = getelementptr inbounds i64, ptr %9, i64 %12
  %14 = load i64, ptr %13, align 8, !tbaa !13
  %15 = or i64 %14, %8
  store i64 %15, ptr %13, align 8, !tbaa !13
  ret void
}

; Function Attrs: inlinehint nounwind uwtable
define internal void @Vec_IntClear(ptr noundef %0) #3 {
  %2 = alloca ptr, align 8
  store ptr %0, ptr %2, align 8, !tbaa !19
  %3 = load ptr, ptr %2, align 8, !tbaa !19
  %4 = getelementptr inbounds nuw %struct.Vec_Int_t_, ptr %3, i32 0, i32 1
  store i32 0, ptr %4, align 4, !tbaa !26
  ret void
}

; Function Attrs: inlinehint nounwind uwtable
define internal void @Vec_WrdClear(ptr noundef %0) #3 {
  %2 = alloca ptr, align 8
  store ptr %0, ptr %2, align 8, !tbaa !37
  %3 = load ptr, ptr %2, align 8, !tbaa !37
  %4 = getelementptr inbounds nuw %struct.Vec_Wrd_t_, ptr %3, i32 0, i32 1
  store i32 0, ptr %4, align 4, !tbaa !42
  ret void
}

; Function Attrs: inlinehint nounwind uwtable
define internal i32 @Abc_TtWordNum(i32 noundef %0) #3 {
  %2 = alloca i32, align 4
  store i32 %0, ptr %2, align 4, !tbaa !8
  %3 = load i32, ptr %2, align 4, !tbaa !8
  %4 = icmp sle i32 %3, 6
  br i1 %4, label %5, label %6

5:                                                ; preds = %1
  br label %10

6:                                                ; preds = %1
  %7 = load i32, ptr %2, align 4, !tbaa !8
  %8 = sub nsw i32 %7, 6
  %9 = shl i32 1, %8
  br label %10

10:                                               ; preds = %6, %5
  %11 = phi i32 [ 1, %5 ], [ %9, %6 ]
  ret i32 %11
}

; Function Attrs: nounwind uwtable
define i32 @Abc_TtGetCM5Pat(ptr noundef %0, i32 noundef %1, ptr noundef %2, ptr noundef %3, ptr noundef %4, ptr noundef %5) #0 {
  %7 = alloca ptr, align 8
  %8 = alloca i32, align 4
  %9 = alloca ptr, align 8
  %10 = alloca ptr, align 8
  %11 = alloca ptr, align 8
  %12 = alloca ptr, align 8
  %13 = alloca ptr, align 8
  %14 = alloca i32, align 4
  %15 = alloca i32, align 4
  %16 = alloca i32, align 4
  %17 = alloca i32, align 4
  store ptr %0, ptr %7, align 8, !tbaa !3
  store i32 %1, ptr %8, align 4, !tbaa !8
  store ptr %2, ptr %9, align 8, !tbaa !19
  store ptr %3, ptr %10, align 8, !tbaa !37
  store ptr %4, ptr %11, align 8, !tbaa !19
  store ptr %5, ptr %12, align 8, !tbaa !3
  call void @llvm.lifetime.start.p0(i64 8, ptr %13) #12
  %18 = load ptr, ptr %7, align 8, !tbaa !3
  store ptr %18, ptr %13, align 8, !tbaa !17
  call void @llvm.lifetime.start.p0(i64 4, ptr %14) #12
  call void @llvm.lifetime.start.p0(i64 4, ptr %15) #12
  call void @llvm.lifetime.start.p0(i64 4, ptr %16) #12
  %19 = load i32, ptr %8, align 4, !tbaa !8
  %20 = sub nsw i32 %19, 5
  %21 = shl i32 1, %20
  store i32 %21, ptr %16, align 4, !tbaa !8
  call void @llvm.lifetime.start.p0(i64 4, ptr %17) #12
  %22 = load i32, ptr %8, align 4, !tbaa !8
  %23 = sub nsw i32 %22, 5
  %24 = call i32 @Abc_TtWordNum(i32 noundef %23)
  store i32 %24, ptr %17, align 4, !tbaa !8
  %25 = load ptr, ptr %10, align 8, !tbaa !37
  call void @Vec_WrdClear(ptr noundef %25)
  %26 = load ptr, ptr %11, align 8, !tbaa !19
  call void @Vec_IntClear(ptr noundef %26)
  %27 = load ptr, ptr %12, align 8, !tbaa !3
  %28 = icmp ne ptr %27, null
  br i1 %28, label %29, label %54

29:                                               ; preds = %6
  store i32 0, ptr %14, align 4, !tbaa !8
  br label %30

30:                                               ; preds = %50, %29
  %31 = load i32, ptr %14, align 4, !tbaa !8
  %32 = load i32, ptr %16, align 4, !tbaa !8
  %33 = icmp slt i32 %31, %32
  br i1 %33, label %34, label %53

34:                                               ; preds = %30
  %35 = load ptr, ptr %12, align 8, !tbaa !3
  %36 = load i32, ptr %17, align 4, !tbaa !8
  %37 = load ptr, ptr %13, align 8, !tbaa !17
  %38 = load i32, ptr %14, align 4, !tbaa !8
  %39 = sext i32 %38 to i64
  %40 = getelementptr inbounds i32, ptr %37, i64 %39
  %41 = load i32, ptr %40, align 4, !tbaa !8
  %42 = load ptr, ptr %9, align 8, !tbaa !19
  %43 = load ptr, ptr %10, align 8, !tbaa !37
  %44 = load ptr, ptr %11, align 8, !tbaa !19
  %45 = call i32 @Abc_TtHashLookup5(i32 noundef %41, ptr noundef %42, ptr noundef %43, ptr noundef %44)
  %46 = mul nsw i32 %36, %45
  %47 = sext i32 %46 to i64
  %48 = getelementptr inbounds i64, ptr %35, i64 %47
  %49 = load i32, ptr %14, align 4, !tbaa !8
  call void @Abc_TtSetBit(ptr noundef %48, i32 noundef %49)
  br label %50

50:                                               ; preds = %34
  %51 = load i32, ptr %14, align 4, !tbaa !8
  %52 = add nsw i32 %51, 1
  store i32 %52, ptr %14, align 4, !tbaa !8
  br label %30, !llvm.loop !56

53:                                               ; preds = %30
  br label %73

54:                                               ; preds = %6
  store i32 0, ptr %14, align 4, !tbaa !8
  br label %55

55:                                               ; preds = %69, %54
  %56 = load i32, ptr %14, align 4, !tbaa !8
  %57 = load i32, ptr %16, align 4, !tbaa !8
  %58 = icmp slt i32 %56, %57
  br i1 %58, label %59, label %72

59:                                               ; preds = %55
  %60 = load ptr, ptr %13, align 8, !tbaa !17
  %61 = load i32, ptr %14, align 4, !tbaa !8
  %62 = sext i32 %61 to i64
  %63 = getelementptr inbounds i32, ptr %60, i64 %62
  %64 = load i32, ptr %63, align 4, !tbaa !8
  %65 = load ptr, ptr %9, align 8, !tbaa !19
  %66 = load ptr, ptr %10, align 8, !tbaa !37
  %67 = load ptr, ptr %11, align 8, !tbaa !19
  %68 = call i32 @Abc_TtHashLookup5(i32 noundef %64, ptr noundef %65, ptr noundef %66, ptr noundef %67)
  br label %69

69:                                               ; preds = %59
  %70 = load i32, ptr %14, align 4, !tbaa !8
  %71 = add nsw i32 %70, 1
  store i32 %71, ptr %14, align 4, !tbaa !8
  br label %55, !llvm.loop !57

72:                                               ; preds = %55
  br label %73

73:                                               ; preds = %72, %53
  store i32 0, ptr %14, align 4, !tbaa !8
  br label %74

74:                                               ; preds = %88, %73
  %75 = load i32, ptr %14, align 4, !tbaa !8
  %76 = load ptr, ptr %11, align 8, !tbaa !19
  %77 = call i32 @Vec_IntSize(ptr noundef %76)
  %78 = icmp slt i32 %75, %77
  br i1 %78, label %79, label %83

79:                                               ; preds = %74
  %80 = load ptr, ptr %11, align 8, !tbaa !19
  %81 = load i32, ptr %14, align 4, !tbaa !8
  %82 = call i32 @Vec_IntEntry(ptr noundef %80, i32 noundef %81)
  store i32 %82, ptr %15, align 4, !tbaa !8
  br label %83

83:                                               ; preds = %79, %74
  %84 = phi i1 [ false, %74 ], [ true, %79 ]
  br i1 %84, label %85, label %91

85:                                               ; preds = %83
  %86 = load ptr, ptr %9, align 8, !tbaa !19
  %87 = load i32, ptr %15, align 4, !tbaa !8
  call void @Vec_IntWriteEntry(ptr noundef %86, i32 noundef %87, i32 noundef -1)
  br label %88

88:                                               ; preds = %85
  %89 = load i32, ptr %14, align 4, !tbaa !8
  %90 = add nsw i32 %89, 1
  store i32 %90, ptr %14, align 4, !tbaa !8
  br label %74, !llvm.loop !58

91:                                               ; preds = %83
  %92 = load ptr, ptr %11, align 8, !tbaa !19
  %93 = call i32 @Vec_IntSize(ptr noundef %92)
  call void @llvm.lifetime.end.p0(i64 4, ptr %17) #12
  call void @llvm.lifetime.end.p0(i64 4, ptr %16) #12
  call void @llvm.lifetime.end.p0(i64 4, ptr %15) #12
  call void @llvm.lifetime.end.p0(i64 4, ptr %14) #12
  call void @llvm.lifetime.end.p0(i64 8, ptr %13) #12
  ret i32 %93
}