; Function Attrs: nounwind uwtable
define i32 @Abc_TtGetCM5Pat(ptr noundef readonly captures(none) %0, i32 noundef %1, ptr noundef readonly captures(none) %2, ptr noundef captures(none) initializes((4, 8)) %3, ptr noundef captures(none) initializes((4, 8)) %4, ptr noundef %5) local_unnamed_addr #3 {
  %7 = add nsw i32 %1, -5
  %8 = shl nuw i32 1, %7
  %9 = getelementptr inbounds nuw i8, ptr %3, i64 4
  store i32 0, ptr %9, align 4, !tbaa !32
  %10 = getelementptr inbounds nuw i8, ptr %4, i64 4
  store i32 0, ptr %10, align 4, !tbaa !14
  %.not = icmp eq ptr %5, null
  %.not45 = icmp eq i32 %7, 31
  br i1 %.not, label %.preheader, label %.preheader36

.preheader36:                                     ; preds = %6
  br i1 %.not45, label %.critedge, label %.lr.ph

.lr.ph:                                           ; preds = %.preheader36
  %11 = tail call i32 @llvm.smax.i32(i32 %1, i32 11)
  %12 = add nsw i32 %11, -11
  %smax = tail call i32 @llvm.smax.i32(i32 %8, i32 1)
  %wide.trip.count = zext nneg i32 %smax to i64
  br label %13

.preheader:                                       ; preds = %6
  br i1 %.not45, label %.critedge, label %.lr.ph40.preheader

.lr.ph40.preheader:                               ; preds = %.preheader
  %smax52 = tail call i32 @llvm.smax.i32(i32 %8, i32 1)
  %wide.trip.count53 = zext nneg i32 %smax52 to i64
  br label %.lr.ph40

13:                                               ; preds = %.lr.ph, %13
  %indvars.iv = phi i64 [ 0, %.lr.ph ], [ %indvars.iv.next, %13 ]
  %14 = getelementptr inbounds nuw i32, ptr %0, i64 %indvars.iv
  %15 = load i32, ptr %14, align 4, !tbaa !7
  %16 = tail call i32 @Abc_TtHashLookup5(i32 noundef %15, ptr noundef %2, ptr noundef %3, ptr noundef %4)
  %17 = shl i32 %16, %12
  %18 = sext i32 %17 to i64
  %19 = getelementptr inbounds i64, ptr %5, i64 %18
  %20 = and i64 %indvars.iv, 63
  %21 = shl nuw i64 1, %20
  %22 = lshr i64 %indvars.iv, 6
  %23 = and i64 %22, 67108863
  %24 = getelementptr inbounds nuw i64, ptr %19, i64 %23
  %25 = load i64, ptr %24, align 8, !tbaa !3
  %26 = or i64 %25, %21
  store i64 %26, ptr %24, align 8, !tbaa !3
  %indvars.iv.next = add nuw nsw i64 %indvars.iv, 1
  %exitcond.not = icmp eq i64 %indvars.iv.next, %wide.trip.count
  br i1 %exitcond.not, label %.loopexit, label %13, !llvm.loop !46

.lr.ph40:                                         ; preds = %.lr.ph40.preheader, %.lr.ph40
  %indvars.iv49 = phi i64 [ 0, %.lr.ph40.preheader ], [ %indvars.iv.next50, %.lr.ph40 ]
  %27 = getelementptr inbounds nuw i32, ptr %0, i64 %indvars.iv49
  %28 = load i32, ptr %27, align 4, !tbaa !7
  %29 = tail call i32 @Abc_TtHashLookup5(i32 noundef %28, ptr noundef %2, ptr noundef %3, ptr noundef %4)
  %indvars.iv.next50 = add nuw nsw i64 %indvars.iv49, 1
  %exitcond54.not = icmp eq i64 %indvars.iv.next50, %wide.trip.count53
  br i1 %exitcond54.not, label %.loopexit, label %.lr.ph40, !llvm.loop !47

.loopexit:                                        ; preds = %13, %.lr.ph40
  %.val3341.pr = load i32, ptr %10, align 4, !tbaa !14
  %30 = icmp sgt i32 %.val3341.pr, 0
  br i1 %30, label %.lr.ph43, label %.critedge

.lr.ph43:                                         ; preds = %.loopexit
  %31 = getelementptr i8, ptr %4, i64 8
  %.val34 = load ptr, ptr %31, align 8, !tbaa !18
  %32 = getelementptr i8, ptr %2, i64 8
  %.val35 = load ptr, ptr %32, align 8, !tbaa !18
  br label %33

33:                                               ; preds = %.lr.ph43, %33
  %indvars.iv55 = phi i64 [ 0, %.lr.ph43 ], [ %indvars.iv.next56, %33 ]
  %34 = getelementptr inbounds nuw i32, ptr %.val34, i64 %indvars.iv55
  %35 = load i32, ptr %34, align 4, !tbaa !7
  %36 = sext i32 %35 to i64
  %37 = getelementptr inbounds i32, ptr %.val35, i64 %36
  store i32 -1, ptr %37, align 4, !tbaa !7
  %indvars.iv.next56 = add nuw nsw i64 %indvars.iv55, 1
  %.val33 = load i32, ptr %10, align 4, !tbaa !14
  %38 = sext i32 %.val33 to i64
  %39 = icmp slt i64 %indvars.iv.next56, %38
  br i1 %39, label %33, label %.critedge, !llvm.loop !48

.critedge:                                        ; preds = %33, %.preheader, %.preheader36, %.loopexit
  %.val33.lcssa = phi i32 [ %.val3341.pr, %.loopexit ], [ 0, %.preheader36 ], [ 0, %.preheader ], [ %.val33, %33 ]
  ret i32 %.val33.lcssa
}